; ModuleID = '15/1466.c'
source_filename = "15/1466.c"
target datalayout = "e-m:e-p270:32:32-p271:32:32-p272:64:64-i64:64-f80:128-n8:16:32:64-S128"
target triple = "x86_64-pc-linux-gnu"

@.str = private unnamed_addr constant [3 x i8] c"%d\00", align 1

; Function Attrs: noinline nounwind uwtable
define dso_local void @main() #0 {
  %1 = alloca i32, align 4
  %2 = alloca i32, align 4
  %3 = alloca i32, align 4
  %4 = alloca i32, align 4
  %5 = alloca i32, align 4
  %6 = alloca i32, align 4
  %7 = alloca [1000 x i32], align 16
  store i32 0, i32* %4, align 4
  store i32 0, i32* %5, align 4
  %8 = bitcast [1000 x i32]* %7 to i8*
  call void @llvm.memset.p0i8.i64(i8* align 16 %8, i8 0, i64 4000, i1 false)
  %9 = call i32 (i8*, ...) @__isoc99_scanf(i8* getelementptr inbounds ([3 x i8], [3 x i8]* @.str, i64 0, i64 0), i32* %3)
  store i32 0, i32* %1, align 4
  br label %10

10:                                               ; preds = %36, %0
  %11 = load i32, i32* %1, align 4
  %12 = load i32, i32* %3, align 4
  %13 = icmp slt i32 %11, %12
  br i1 %13, label %14, label %39

14:                                               ; preds = %10
  store i32 0, i32* %2, align 4
  br label %15

15:                                               ; preds = %32, %14
  %16 = load i32, i32* %2, align 4
  %17 = load i32, i32* %3, align 4
  %18 = icmp slt i32 %16, %17
  br i1 %18, label %19, label %35

19:                                               ; preds = %15
  %20 = call i32 (i8*, ...) @__isoc99_scanf(i8* getelementptr inbounds ([3 x i8], [3 x i8]* @.str, i64 0, i64 0), i32* %6)
  %21 = load i32, i32* %6, align 4
  %22 = icmp eq i32 %21, 0
  br i1 %22, label %23, label %31

23:                                               ; preds = %19
  %24 = load i32, i32* %1, align 4
  %25 = sext i32 %24 to i64
  %26 = getelementptr inbounds [1000 x i32], [1000 x i32]* %7, i64 0, i64 %25
  %27 = load i32, i32* %26, align 4
  %28 = add nsw i32 %27, 1
  store i32 %28, i32* %26, align 4
  %29 = load i32, i32* %4, align 4
  %30 = add nsw i32 %29, 1
  store i32 %30, i32* %4, align 4
  br label %31

31:                                               ; preds = %23, %19
  br label %32

32:                                               ; preds = %31
  %33 = load i32, i32* %2, align 4
  %34 = add nsw i32 %33, 1
  store i32 %34, i32* %2, align 4
  br label %15

35:                                               ; preds = %15
  br label %36

36:                                               ; preds = %35
  %37 = load i32, i32* %1, align 4
  %38 = add nsw i32 %37, 1
  store i32 %38, i32* %1, align 4
  br label %10

39:                                               ; preds = %10
  store i32 1, i32* %1, align 4
  br label %40

40:                                               ; preds = %54, %39
  %41 = load i32, i32* %1, align 4
  %42 = load i32, i32* %3, align 4
  %43 = icmp slt i32 %41, %42
  br i1 %43, label %44, label %57

44:                                               ; preds = %40
  %45 = load i32, i32* %1, align 4
  %46 = sext i32 %45 to i64
  %47 = getelementptr inbounds [1000 x i32], [1000 x i32]* %7, i64 0, i64 %46
  %48 = load i32, i32* %47, align 4
  %49 = icmp ne i32 %48, 0
  br i1 %49, label %50, label %53

50:                                               ; preds = %44
  %51 = load i32, i32* %5, align 4
  %52 = add nsw i32 %51, 1
  store i32 %52, i32* %5, align 4
  br label %53

53:                                               ; preds = %50, %44
  br label %54

54:                                               ; preds = %53
  %55 = load i32, i32* %1, align 4
  %56 = add nsw i32 %55, 1
  store i32 %56, i32* %1, align 4
  br label %40

57:                                               ; preds = %40
  %58 = load i32, i32* %5, align 4
  %59 = sub nsw i32 %58, 2
  %60 = load i32, i32* %4, align 4
  %61 = load i32, i32* %5, align 4
  %62 = mul nsw i32 2, %61
  %63 = sub nsw i32 %60, %62
  %64 = mul nsw i32 %59, %63
  %65 = sdiv i32 %64, 2
  %66 = call i32 (i8*, ...) @printf(i8* getelementptr inbounds ([3 x i8], [3 x i8]* @.str, i64 0, i64 0), i32 %65)
  ret void
}

; Function Attrs: argmemonly nounwind willreturn
declare void @llvm.memset.p0i8.i64(i8* nocapture writeonly, i8, i64, i1 immarg) #1

declare dso_local i32 @__isoc99_scanf(i8*, ...) #2

declare dso_local i32 @printf(i8*, ...) #2


!llvm.module.flags = !{!0}
!llvm.ident = !{!1}

!0 = !{i32 1, !"wchar_size", i32 4}
!1 = !{!"clang version 10.0.0-4ubuntu1 "}
